Certificate:
    Data:
        Version: 3 (0x2)
        Serial Number: 612758 (0x95996)
        Signature Algorithm: sha256WithRSAEncryption
        Issuer: CN=web-platform-tests
        Validity
            Not Before: Feb 12 00:50:56 2024 GMT
            Not After : Feb 11 00:50:56 2025 GMT
        Subject: CN=web-platform.test
        Subject Public Key Info:
            Public Key Algorithm: rsaEncryption
                RSA Public-Key: (2048 bit)
                Modulus:
                    00:ac:86:f3:92:68:99:75:9c:60:2f:af:89:df:63:
                    37:56:0f:59:b3:92:c6:8f:b3:b3:07:3d:41:ad:80:
                    21:fd:d2:31:2d:d8:32:54:45:e8:96:19:c9:92:3f:
                    e9:f5:2f:34:b1:b5:9b:a9:05:31:50:7b:a6:53:d4:
                    ee:f2:38:54:af:04:99:6e:ef:ab:36:2c:cb:86:ab:
                    79:03:5f:11:35:89:26:f2:81:cd:04:8f:85:24:48:
                    b0:56:39:1b:49:b3:95:74:d4:33:69:cb:3b:01:51:
                    78:40:ca:0c:50:bb:14:90:13:6e:b7:23:5e:74:2a:
                    b8:7f:2f:a7:49:45:78:ad:a6:6f:df:62:55:97:e0:
                    32:ab:d7:fe:a1:d5:7d:57:1d:71:96:22:5a:b2:fe:
                    15:6d:4b:55:2f:f5:91:a4:06:b6:b6:f9:f7:50:71:
                    d7:6e:fd:06:a9:e8:c1:94:c1:ed:b1:76:f0:49:48:
                    08:85:79:f0:bb:c0:3c:67:27:65:1b:95:19:ed:a8:
                    31:ec:86:2b:cd:3e:c2:a2:ce:69:47:9f:f7:0a:7e:
                    b3:9d:c7:0f:0c:f7:67:6e:c5:b7:50:91:b0:65:79:
                    80:1f:4b:d9:2d:49:76:15:4a:46:85:24:cf:96:2a:
                    df:3f:70:f7:19:45:56:a0:79:84:87:47:40:0b:36:
                    e9:39
                Exponent: 65537 (0x10001)
        X509v3 extensions:
            X509v3 Basic Constraints: 
                CA:FALSE
            X509v3 Subject Key Identifier: 
                A4:6E:72:E5:AB:96:3B:A2:E1:D1:94:52:3C:0B:1E:02:50:F4:4F:19
            X509v3 Authority Key Identifier: 
                keyid:1F:20:FA:3C:51:33:56:B6:88:A9:A4:32:6A:FA:C2:2D:D2:1C:58:B7

            X509v3 Key Usage: 
                Digital Signature, Non Repudiation, Key Encipherment
            X509v3 Extended Key Usage: 
                TLS Web Server Authentication
            X509v3 Subject Alternative Name: 
                DNS:web-platform.test, DNS:www.web-platform.test, DNS:not-web-platform.test, DNS:www1.web-platform.test, DNS:www2.web-platform.test, DNS:www.www.web-platform.test, DNS:www.not-web-platform.test, DNS:www.www1.web-platform.test, DNS:www.www2.web-platform.test, DNS:www2.not-web-platform.test, DNS:www1.not-web-platform.test, DNS:www2.www.web-platform.test, DNS:www1.www.web-platform.test, DNS:www1.www1.web-platform.test, DNS:www2.www1.web-platform.test, DNS:www1.www2.web-platform.test, DNS:www2.www2.web-platform.test, DNS:www.www.not-web-platform.test, DNS:www.www2.not-web-platform.test, DNS:www1.www.not-web-platform.test, DNS:www2.www.not-web-platform.test, DNS:www.www1.not-web-platform.test, DNS:xn--lve-6lad.web-platform.test, DNS:www2.www1.not-web-platform.test, DNS:www2.www2.not-web-platform.test, DNS:www1.www1.not-web-platform.test, DNS:www1.www2.not-web-platform.test, DNS:xn--lve-6lad.not-web-platform.test, DNS:xn--lve-6lad.www.web-platform.test, DNS:www.xn--lve-6lad.web-platform.test, DNS:www2.xn--lve-6lad.web-platform.test, DNS:www1.xn--lve-6lad.web-platform.test, DNS:xn--lve-6lad.www2.web-platform.test, DNS:xn--lve-6lad.www1.web-platform.test, DNS:www.xn--lve-6lad.not-web-platform.test, DNS:xn--lve-6lad.www.not-web-platform.test, DNS:www1.xn--lve-6lad.not-web-platform.test, DNS:xn--lve-6lad.www1.not-web-platform.test, DNS:xn--lve-6lad.www2.not-web-platform.test, DNS:www2.xn--lve-6lad.not-web-platform.test, DNS:xn--n8j6ds53lwwkrqhv28a.web-platform.test, DNS:xn--lve-6lad.xn--lve-6lad.web-platform.test, DNS:xn--n8j6ds53lwwkrqhv28a.www.web-platform.test, DNS:xn--n8j6ds53lwwkrqhv28a.not-web-platform.test, DNS:www.xn--n8j6ds53lwwkrqhv28a.web-platform.test, DNS:www1.xn--n8j6ds53lwwkrqhv28a.web-platform.test, DNS:www2.xn--n8j6ds53lwwkrqhv28a.web-platform.test, DNS:xn--n8j6ds53lwwkrqhv28a.www2.web-platform.test, DNS:xn--n8j6ds53lwwkrqhv28a.www1.web-platform.test, DNS:xn--lve-6lad.xn--lve-6lad.not-web-platform.test, DNS:xn--n8j6ds53lwwkrqhv28a.www.not-web-platform.test, DNS:www.xn--n8j6ds53lwwkrqhv28a.not-web-platform.test, DNS:www1.xn--n8j6ds53lwwkrqhv28a.not-web-platform.test, DNS:xn--n8j6ds53lwwkrqhv28a.www2.not-web-platform.test, DNS:www2.xn--n8j6ds53lwwkrqhv28a.not-web-platform.test, DNS:xn--n8j6ds53lwwkrqhv28a.www1.not-web-platform.test, DNS:xn--n8j6ds53lwwkrqhv28a.xn--lve-6lad.web-platform.test, DNS:xn--lve-6lad.xn--n8j6ds53lwwkrqhv28a.web-platform.test, DNS:xn--lve-6lad.xn--n8j6ds53lwwkrqhv28a.not-web-platform.test, DNS:xn--n8j6ds53lwwkrqhv28a.xn--lve-6lad.not-web-platform.test, DNS:xn--n8j6ds53lwwkrqhv28a.xn--n8j6ds53lwwkrqhv28a.web-platform.test, DNS:xn--n8j6ds53lwwkrqhv28a.xn--n8j6ds53lwwkrqhv28a.not-web-platform.test
    Signature Algorithm: sha256WithRSAEncryption
         42:5e:92:73:8d:eb:96:e1:c7:8d:d6:6b:fe:f0:27:6b:c1:65:
         0a:38:e9:24:89:d0:3f:f8:7c:85:87:d4:a4:6e:c4:a5:52:b9:
         be:6c:47:ae:f4:f8:2e:38:a4:ba:f8:37:f7:d3:e4:aa:fe:7a:
         da:5d:01:b6:52:b8:f6:24:32:f6:51:3a:40:c7:b4:23:a4:ad:
         41:63:eb:fa:85:bb:21:83:9e:66:d4:79:20:86:87:a9:e7:77:
         91:e6:de:9b:93:11:c5:0b:9d:f7:f4:93:e3:86:8f:0d:92:31:
         8a:ff:5b:0a:8c:4a:b6:ff:c6:df:af:7c:78:f3:b0:c7:cf:03:
         bb:be:85:ac:2d:66:b9:37:37:1a:6d:c0:24:4e:6a:8c:64:b0:
         30:44:cf:cb:ee:cf:28:bc:43:07:45:e2:d7:f8:ca:d4:f0:9c:
         c0:57:fd:28:7d:5c:01:9f:86:95:b6:45:4a:9b:4a:d1:97:c7:
         94:9b:25:40:f9:b0:5f:fc:86:71:68:17:19:7d:f7:d1:bb:05:
         a6:ba:09:11:f1:4d:71:47:55:79:0f:fb:13:f9:f5:e6:58:b3:
         59:4f:8d:44:8e:21:1a:17:d0:cd:50:a5:e7:22:55:98:bb:3d:
         54:bf:83:21:2e:da:82:e8:dc:09:b8:82:26:85:62:8f:b0:c2:
         2d:47:d9:4a
-----BEGIN CERTIFICATE-----
MIIMsjCCC5qgAwIBAgIDCVmWMA0GCSqGSIb3DQEBCwUAMB0xGzAZBgNVBAMMEndl
Yi1wbGF0Zm9ybS10ZXN0czAeFw0yNDAyMTIwMDUwNTZaFw0yNTAyMTEwMDUwNTZa
MBwxGjAYBgNVBAMMEXdlYi1wbGF0Zm9ybS50ZXN0MIIBIjANBgkqhkiG9w0BAQEF
AAOCAQ8AMIIBCgKCAQEArIbzkmiZdZxgL6+J32M3Vg9Zs5LGj7OzBz1BrYAh/dIx
LdgyVEXolhnJkj/p9S80sbWbqQUxUHumU9Tu8jhUrwSZbu+rNizLhqt5A18RNYkm
8oHNBI+FJEiwVjkbSbOVdNQzacs7AVF4QMoMULsUkBNutyNedCq4fy+nSUV4raZv
32JVl+Ayq9f+odV9Vx1xliJasv4VbUtVL/WRpAa2tvn3UHHXbv0GqejBlMHtsXbw
SUgIhXnwu8A8ZydlG5UZ7agx7IYrzT7Cos5pR5/3Cn6znccPDPdnbsW3UJGwZXmA
H0vZLUl2FUpGhSTPlirfP3D3GUVWoHmEh0dACzbpOQIDAQABo4IJ+jCCCfYwCQYD
VR0TBAIwADAdBgNVHQ4EFgQUpG5y5auWO6Lh0ZRSPAseAlD0TxkwHwYDVR0jBBgw
FoAUHyD6PFEzVraIqaQyavrCLdIcWLcwCwYDVR0PBAQDAgXgMBMGA1UdJQQMMAoG
CCsGAQUFBwMBMIIJhQYDVR0RBIIJfDCCCXiCEXdlYi1wbGF0Zm9ybS50ZXN0ghV3
d3cud2ViLXBsYXRmb3JtLnRlc3SCFW5vdC13ZWItcGxhdGZvcm0udGVzdIIWd3d3
MS53ZWItcGxhdGZvcm0udGVzdIIWd3d3Mi53ZWItcGxhdGZvcm0udGVzdIIZd3d3
Lnd3dy53ZWItcGxhdGZvcm0udGVzdIIZd3d3Lm5vdC13ZWItcGxhdGZvcm0udGVz
dIIad3d3Lnd3dzEud2ViLXBsYXRmb3JtLnRlc3SCGnd3dy53d3cyLndlYi1wbGF0
Zm9ybS50ZXN0ghp3d3cyLm5vdC13ZWItcGxhdGZvcm0udGVzdIIad3d3MS5ub3Qt
d2ViLXBsYXRmb3JtLnRlc3SCGnd3dzIud3d3LndlYi1wbGF0Zm9ybS50ZXN0ghp3
d3cxLnd3dy53ZWItcGxhdGZvcm0udGVzdIIbd3d3MS53d3cxLndlYi1wbGF0Zm9y
bS50ZXN0ght3d3cyLnd3dzEud2ViLXBsYXRmb3JtLnRlc3SCG3d3dzEud3d3Mi53
ZWItcGxhdGZvcm0udGVzdIIbd3d3Mi53d3cyLndlYi1wbGF0Zm9ybS50ZXN0gh13
d3cud3d3Lm5vdC13ZWItcGxhdGZvcm0udGVzdIIed3d3Lnd3dzIubm90LXdlYi1w
bGF0Zm9ybS50ZXN0gh53d3cxLnd3dy5ub3Qtd2ViLXBsYXRmb3JtLnRlc3SCHnd3
dzIud3d3Lm5vdC13ZWItcGxhdGZvcm0udGVzdIIed3d3Lnd3dzEubm90LXdlYi1w
bGF0Zm9ybS50ZXN0gh54bi0tbHZlLTZsYWQud2ViLXBsYXRmb3JtLnRlc3SCH3d3
dzIud3d3MS5ub3Qtd2ViLXBsYXRmb3JtLnRlc3SCH3d3dzIud3d3Mi5ub3Qtd2Vi
LXBsYXRmb3JtLnRlc3SCH3d3dzEud3d3MS5ub3Qtd2ViLXBsYXRmb3JtLnRlc3SC
H3d3dzEud3d3Mi5ub3Qtd2ViLXBsYXRmb3JtLnRlc3SCInhuLS1sdmUtNmxhZC5u
b3Qtd2ViLXBsYXRmb3JtLnRlc3SCInhuLS1sdmUtNmxhZC53d3cud2ViLXBsYXRm
b3JtLnRlc3SCInd3dy54bi0tbHZlLTZsYWQud2ViLXBsYXRmb3JtLnRlc3SCI3d3
dzIueG4tLWx2ZS02bGFkLndlYi1wbGF0Zm9ybS50ZXN0giN3d3cxLnhuLS1sdmUt
NmxhZC53ZWItcGxhdGZvcm0udGVzdIIjeG4tLWx2ZS02bGFkLnd3dzIud2ViLXBs
YXRmb3JtLnRlc3SCI3huLS1sdmUtNmxhZC53d3cxLndlYi1wbGF0Zm9ybS50ZXN0
giZ3d3cueG4tLWx2ZS02bGFkLm5vdC13ZWItcGxhdGZvcm0udGVzdIImeG4tLWx2
ZS02bGFkLnd3dy5ub3Qtd2ViLXBsYXRmb3JtLnRlc3SCJ3d3dzEueG4tLWx2ZS02
bGFkLm5vdC13ZWItcGxhdGZvcm0udGVzdIIneG4tLWx2ZS02bGFkLnd3dzEubm90
LXdlYi1wbGF0Zm9ybS50ZXN0gid4bi0tbHZlLTZsYWQud3d3Mi5ub3Qtd2ViLXBs
YXRmb3JtLnRlc3SCJ3d3dzIueG4tLWx2ZS02bGFkLm5vdC13ZWItcGxhdGZvcm0u
dGVzdIIpeG4tLW44ajZkczUzbHd3a3JxaHYyOGEud2ViLXBsYXRmb3JtLnRlc3SC
K3huLS1sdmUtNmxhZC54bi0tbHZlLTZsYWQud2ViLXBsYXRmb3JtLnRlc3SCLXhu
LS1uOGo2ZHM1M2x3d2tycWh2MjhhLnd3dy53ZWItcGxhdGZvcm0udGVzdIIteG4t
LW44ajZkczUzbHd3a3JxaHYyOGEubm90LXdlYi1wbGF0Zm9ybS50ZXN0gi13d3cu
eG4tLW44ajZkczUzbHd3a3JxaHYyOGEud2ViLXBsYXRmb3JtLnRlc3SCLnd3dzEu
eG4tLW44ajZkczUzbHd3a3JxaHYyOGEud2ViLXBsYXRmb3JtLnRlc3SCLnd3dzIu
eG4tLW44ajZkczUzbHd3a3JxaHYyOGEud2ViLXBsYXRmb3JtLnRlc3SCLnhuLS1u
OGo2ZHM1M2x3d2tycWh2MjhhLnd3dzIud2ViLXBsYXRmb3JtLnRlc3SCLnhuLS1u
OGo2ZHM1M2x3d2tycWh2MjhhLnd3dzEud2ViLXBsYXRmb3JtLnRlc3SCL3huLS1s
dmUtNmxhZC54bi0tbHZlLTZsYWQubm90LXdlYi1wbGF0Zm9ybS50ZXN0gjF4bi0t
bjhqNmRzNTNsd3drcnFodjI4YS53d3cubm90LXdlYi1wbGF0Zm9ybS50ZXN0gjF3
d3cueG4tLW44ajZkczUzbHd3a3JxaHYyOGEubm90LXdlYi1wbGF0Zm9ybS50ZXN0
gjJ3d3cxLnhuLS1uOGo2ZHM1M2x3d2tycWh2MjhhLm5vdC13ZWItcGxhdGZvcm0u
dGVzdIIyeG4tLW44ajZkczUzbHd3a3JxaHYyOGEud3d3Mi5ub3Qtd2ViLXBsYXRm
b3JtLnRlc3SCMnd3dzIueG4tLW44ajZkczUzbHd3a3JxaHYyOGEubm90LXdlYi1w
bGF0Zm9ybS50ZXN0gjJ4bi0tbjhqNmRzNTNsd3drcnFodjI4YS53d3cxLm5vdC13
ZWItcGxhdGZvcm0udGVzdII2eG4tLW44ajZkczUzbHd3a3JxaHYyOGEueG4tLWx2
ZS02bGFkLndlYi1wbGF0Zm9ybS50ZXN0gjZ4bi0tbHZlLTZsYWQueG4tLW44ajZk
czUzbHd3a3JxaHYyOGEud2ViLXBsYXRmb3JtLnRlc3SCOnhuLS1sdmUtNmxhZC54
bi0tbjhqNmRzNTNsd3drcnFodjI4YS5ub3Qtd2ViLXBsYXRmb3JtLnRlc3SCOnhu
LS1uOGo2ZHM1M2x3d2tycWh2MjhhLnhuLS1sdmUtNmxhZC5ub3Qtd2ViLXBsYXRm
b3JtLnRlc3SCQXhuLS1uOGo2ZHM1M2x3d2tycWh2MjhhLnhuLS1uOGo2ZHM1M2x3
d2tycWh2MjhhLndlYi1wbGF0Zm9ybS50ZXN0gkV4bi0tbjhqNmRzNTNsd3drcnFo
djI4YS54bi0tbjhqNmRzNTNsd3drcnFodjI4YS5ub3Qtd2ViLXBsYXRmb3JtLnRl
c3QwDQYJKoZIhvcNAQELBQADggEBAEJeknON65bhx43Wa/7wJ2vBZQo46SSJ0D/4
fIWH1KRuxKVSub5sR670+C44pLr4N/fT5Kr+etpdAbZSuPYkMvZROkDHtCOkrUFj
6/qFuyGDnmbUeSCGh6nnd5Hm3puTEcULnff0k+OGjw2SMYr/WwqMSrb/xt+vfHjz
sMfPA7u+hawtZrk3NxptwCROaoxksDBEz8vuzyi8QwdF4tf4ytTwnMBX/Sh9XAGf
hpW2RUqbStGXx5SbJUD5sF/8hnFoFxl999G7Baa6CRHxTXFHVXkP+xP59eZYs1lP
jUSOIRoX0M1QpeciVZi7PVS/gyEu2oLo3Am4giaFYo+wwi1H2Uo=
-----END CERTIFICATE-----
